; Function Attrs: mustprogress uwtable
define noundef signext range(i8 0, 2) i8 @_ZNK6icu_7712UnifiedCache6_flushEa(ptr noundef nonnull align 8 dereferenceable(56) %0, i8 noundef signext %1) local_unnamed_addr #0 align 2 {
  %3 = getelementptr inbounds nuw i8, ptr %0, i64 8
  %4 = load ptr, ptr %3, align 8, !tbaa !21
  %5 = tail call i32 @uhash_count_77(ptr noundef %4)
  %6 = icmp sgt i32 %5, 0
  br i1 %6, label %.lr.ph, label %_ZNK6icu_7712UnifiedCache13removeSoftRefEPKNS_12SharedObjectE.exit

.lr.ph:                                           ; preds = %2
  %7 = getelementptr inbounds nuw i8, ptr %0, i64 16
  %.not = icmp eq i8 %1, 0
  %8 = getelementptr inbounds nuw i8, ptr %0, i64 48
  %9 = getelementptr inbounds nuw i8, ptr %0, i64 20
  br i1 %.not, label %.lr.ph.split.us, label %.lr.ph.split

.lr.ph.split.us:                                  ; preds = %.lr.ph, %_ZNK6icu_7712UnifiedCache12_isEvictableEPK12UHashElement.exit.thread.us
  %.032.us = phi i8 [ %.2.ph.us, %_ZNK6icu_7712UnifiedCache12_isEvictableEPK12UHashElement.exit.thread.us ], [ 0, %.lr.ph ]
  %.01131.us = phi i32 [ %49, %_ZNK6icu_7712UnifiedCache12_isEvictableEPK12UHashElement.exit.thread.us ], [ 0, %.lr.ph ]
  %10 = load ptr, ptr %3, align 8, !tbaa !21
  %11 = tail call ptr @uhash_nextElement_77(ptr noundef %10, ptr noundef nonnull %7)
  %12 = icmp eq ptr %11, null
  br i1 %12, label %_ZNK6icu_7712UnifiedCache12_nextElementEv.exit.us, label %_ZNK6icu_7712UnifiedCache12_nextElementEv.exit.thread.us

_ZNK6icu_7712UnifiedCache12_nextElementEv.exit.us: ; preds = %.lr.ph.split.us
  store i32 -1, ptr %7, align 8, !tbaa !28
  %13 = load ptr, ptr %3, align 8, !tbaa !21
  %14 = tail call ptr @uhash_nextElement_77(ptr noundef %13, ptr noundef nonnull %7)
  %.not15.us = icmp eq ptr %14, null
  br i1 %.not15.us, label %_ZNK6icu_7712UnifiedCache13removeSoftRefEPKNS_12SharedObjectE.exit, label %_ZNK6icu_7712UnifiedCache12_nextElementEv.exit.thread.us

_ZNK6icu_7712UnifiedCache12_nextElementEv.exit.thread.us: ; preds = %_ZNK6icu_7712UnifiedCache12_nextElementEv.exit.us, %.lr.ph.split.us
  %.0.i19.us = phi ptr [ %14, %_ZNK6icu_7712UnifiedCache12_nextElementEv.exit.us ], [ %11, %.lr.ph.split.us ]
  %15 = getelementptr inbounds nuw i8, ptr %.0.i19.us, i64 16
  %16 = load ptr, ptr %15, align 8, !tbaa !41
  %17 = getelementptr inbounds nuw i8, ptr %.0.i19.us, i64 8
  %18 = load ptr, ptr %17, align 8, !tbaa !41
  %19 = getelementptr inbounds nuw i8, ptr %16, i64 8
  %20 = load i32, ptr %19, align 8, !tbaa !42
  %21 = load ptr, ptr %8, align 8, !tbaa !33
  %22 = icmp ne ptr %18, %21
  %23 = icmp ne i32 %20, 0
  %.not11.i.us = or i1 %23, %22
  br i1 %.not11.i.us, label %24, label %_ZNK6icu_7712UnifiedCache12_isEvictableEPK12UHashElement.exit.thread.us

24:                                               ; preds = %_ZNK6icu_7712UnifiedCache12_nextElementEv.exit.thread.us
  %25 = getelementptr inbounds nuw i8, ptr %16, i64 12
  %26 = load i8, ptr %25, align 4, !tbaa !44
  %.not8.i.us = icmp eq i8 %26, 0
  br i1 %.not8.i.us, label %_ZNK6icu_7712UnifiedCache12_isEvictableEPK12UHashElement.exit.thread24.us, label %27

27:                                               ; preds = %24
  %28 = getelementptr inbounds nuw i8, ptr %18, i64 8
  %29 = load i32, ptr %28, align 8, !tbaa !34
  %30 = icmp eq i32 %29, 1
  br i1 %30, label %_ZNK6icu_7712UnifiedCache12_isEvictableEPK12UHashElement.exit.us, label %_ZNK6icu_7712UnifiedCache12_isEvictableEPK12UHashElement.exit.thread.us

_ZNK6icu_7712UnifiedCache12_isEvictableEPK12UHashElement.exit.us: ; preds = %27
  %31 = tail call noundef i32 @_ZNK6icu_7712SharedObject11getRefCountEv(ptr noundef nonnull align 8 dereferenceable(24) %18)
  %.not30.us = icmp eq i32 %31, 0
  br i1 %.not30.us, label %_ZNK6icu_7712UnifiedCache12_isEvictableEPK12UHashElement.exit.us._ZNK6icu_7712UnifiedCache12_isEvictableEPK12UHashElement.exit.thread24.us_crit_edge, label %_ZNK6icu_7712UnifiedCache12_isEvictableEPK12UHashElement.exit.thread.us

_ZNK6icu_7712UnifiedCache12_isEvictableEPK12UHashElement.exit.us._ZNK6icu_7712UnifiedCache12_isEvictableEPK12UHashElement.exit.thread24.us_crit_edge: ; preds = %_ZNK6icu_7712UnifiedCache12_isEvictableEPK12UHashElement.exit.us
  %.pre = load ptr, ptr %17, align 8, !tbaa !41
  br label %_ZNK6icu_7712UnifiedCache12_isEvictableEPK12UHashElement.exit.thread24.us

_ZNK6icu_7712UnifiedCache12_isEvictableEPK12UHashElement.exit.thread24.us: ; preds = %_ZNK6icu_7712UnifiedCache12_isEvictableEPK12UHashElement.exit.us._ZNK6icu_7712UnifiedCache12_isEvictableEPK12UHashElement.exit.thread24.us_crit_edge, %24
  %32 = phi ptr [ %.pre, %_ZNK6icu_7712UnifiedCache12_isEvictableEPK12UHashElement.exit.us._ZNK6icu_7712UnifiedCache12_isEvictableEPK12UHashElement.exit.thread24.us_crit_edge ], [ %18, %24 ]
  %33 = load ptr, ptr %3, align 8, !tbaa !21
  %34 = tail call ptr @uhash_removeElement_77(ptr noundef %33, ptr noundef nonnull %.0.i19.us)
  %35 = getelementptr inbounds nuw i8, ptr %32, i64 8
  %36 = load i32, ptr %35, align 8, !tbaa !34
  %37 = add nsw i32 %36, -1
  store i32 %37, ptr %35, align 8, !tbaa !34
  %38 = icmp eq i32 %37, 0
  br i1 %38, label %39, label %_ZNK6icu_7712UnifiedCache12_isEvictableEPK12UHashElement.exit.thread.us

39:                                               ; preds = %_ZNK6icu_7712UnifiedCache12_isEvictableEPK12UHashElement.exit.thread24.us
  %40 = load i32, ptr %9, align 4, !tbaa !29
  %41 = add nsw i32 %40, -1
  store i32 %41, ptr %9, align 4, !tbaa !29
  %42 = tail call noundef i32 @_ZNK6icu_7712SharedObject11getRefCountEv(ptr noundef nonnull align 8 dereferenceable(24) %32)
  %.not.i.us = icmp eq i32 %42, 0
  br i1 %.not.i.us, label %45, label %43

43:                                               ; preds = %39
  %44 = getelementptr inbounds nuw i8, ptr %32, i64 16
  store ptr null, ptr %44, align 8, !tbaa !37
  br label %_ZNK6icu_7712UnifiedCache12_isEvictableEPK12UHashElement.exit.thread.us

45:                                               ; preds = %39
  %46 = load ptr, ptr %32, align 8, !tbaa !3
  %47 = getelementptr inbounds nuw i8, ptr %46, i64 8
  %48 = load ptr, ptr %47, align 8
  tail call void %48(ptr noundef nonnull align 8 dereferenceable(24) %32) #16
  br label %_ZNK6icu_7712UnifiedCache12_isEvictableEPK12UHashElement.exit.thread.us

_ZNK6icu_7712UnifiedCache12_isEvictableEPK12UHashElement.exit.thread.us: ; preds = %45, %43, %_ZNK6icu_7712UnifiedCache12_isEvictableEPK12UHashElement.exit.thread24.us, %_ZNK6icu_7712UnifiedCache12_isEvictableEPK12UHashElement.exit.us, %27, %_ZNK6icu_7712UnifiedCache12_nextElementEv.exit.thread.us
  %.2.ph.us = phi i8 [ 1, %43 ], [ 1, %45 ], [ 1, %_ZNK6icu_7712UnifiedCache12_isEvictableEPK12UHashElement.exit.thread24.us ], [ %.032.us, %_ZNK6icu_7712UnifiedCache12_isEvictableEPK12UHashElement.exit.us ], [ %.032.us, %_ZNK6icu_7712UnifiedCache12_nextElementEv.exit.thread.us ], [ %.032.us, %27 ]
  %49 = add nuw nsw i32 %.01131.us, 1
  %exitcond37.not = icmp eq i32 %49, %5
  br i1 %exitcond37.not, label %_ZNK6icu_7712UnifiedCache13removeSoftRefEPKNS_12SharedObjectE.exit, label %.lr.ph.split.us, !llvm.loop !45

.lr.ph.split:                                     ; preds = %.lr.ph, %_ZNK6icu_7712UnifiedCache12_isEvictableEPK12UHashElement.exit.thread
  %.032 = phi i8 [ 1, %_ZNK6icu_7712UnifiedCache12_isEvictableEPK12UHashElement.exit.thread ], [ 0, %.lr.ph ]
  %.01131 = phi i32 [ %73, %_ZNK6icu_7712UnifiedCache12_isEvictableEPK12UHashElement.exit.thread ], [ 0, %.lr.ph ]
  %50 = load ptr, ptr %3, align 8, !tbaa !21
  %51 = tail call ptr @uhash_nextElement_77(ptr noundef %50, ptr noundef nonnull %7)
  %52 = icmp eq ptr %51, null
  br i1 %52, label %_ZNK6icu_7712UnifiedCache12_nextElementEv.exit, label %_ZNK6icu_7712UnifiedCache12_nextElementEv.exit.thread

_ZNK6icu_7712UnifiedCache12_nextElementEv.exit:   ; preds = %.lr.ph.split
  store i32 -1, ptr %7, align 8, !tbaa !28
  %53 = load ptr, ptr %3, align 8, !tbaa !21
  %54 = tail call ptr @uhash_nextElement_77(ptr noundef %53, ptr noundef nonnull %7)
  %.not15 = icmp eq ptr %54, null
  br i1 %.not15, label %_ZNK6icu_7712UnifiedCache13removeSoftRefEPKNS_12SharedObjectE.exit, label %_ZNK6icu_7712UnifiedCache12_nextElementEv.exit.thread

_ZNK6icu_7712UnifiedCache12_nextElementEv.exit.thread: ; preds = %.lr.ph.split, %_ZNK6icu_7712UnifiedCache12_nextElementEv.exit
  %.0.i19 = phi ptr [ %54, %_ZNK6icu_7712UnifiedCache12_nextElementEv.exit ], [ %51, %.lr.ph.split ]
  %55 = getelementptr inbounds nuw i8, ptr %.0.i19, i64 8
  %56 = load ptr, ptr %55, align 8, !tbaa !41
  %57 = load ptr, ptr %3, align 8, !tbaa !21
  %58 = tail call ptr @uhash_removeElement_77(ptr noundef %57, ptr noundef nonnull %.0.i19)
  %59 = getelementptr inbounds nuw i8, ptr %56, i64 8
  %60 = load i32, ptr %59, align 8, !tbaa !34
  %61 = add nsw i32 %60, -1
  store i32 %61, ptr %59, align 8, !tbaa !34
  %62 = icmp eq i32 %61, 0
  br i1 %62, label %63, label %_ZNK6icu_7712UnifiedCache12_isEvictableEPK12UHashElement.exit.thread

63:                                               ; preds = %_ZNK6icu_7712UnifiedCache12_nextElementEv.exit.thread
  %64 = load i32, ptr %9, align 4, !tbaa !29
  %65 = add nsw i32 %64, -1
  store i32 %65, ptr %9, align 4, !tbaa !29
  %66 = tail call noundef i32 @_ZNK6icu_7712SharedObject11getRefCountEv(ptr noundef nonnull align 8 dereferenceable(24) %56)
  %.not.i = icmp eq i32 %66, 0
  br i1 %.not.i, label %67, label %71

67:                                               ; preds = %63
  %68 = load ptr, ptr %56, align 8, !tbaa !3
  %69 = getelementptr inbounds nuw i8, ptr %68, i64 8
  %70 = load ptr, ptr %69, align 8
  tail call void %70(ptr noundef nonnull align 8 dereferenceable(24) %56) #16
  br label %_ZNK6icu_7712UnifiedCache12_isEvictableEPK12UHashElement.exit.thread

71:                                               ; preds = %63
  %72 = getelementptr inbounds nuw i8, ptr %56, i64 16
  store ptr null, ptr %72, align 8, !tbaa !37
  br label %_ZNK6icu_7712UnifiedCache12_isEvictableEPK12UHashElement.exit.thread

_ZNK6icu_7712UnifiedCache12_isEvictableEPK12UHashElement.exit.thread: ; preds = %_ZNK6icu_7712UnifiedCache12_nextElementEv.exit.thread, %67, %71
  %73 = add nuw nsw i32 %.01131, 1
  %exitcond.not = icmp eq i32 %73, %5
  br i1 %exitcond.not, label %_ZNK6icu_7712UnifiedCache13removeSoftRefEPKNS_12SharedObjectE.exit, label %.lr.ph.split, !llvm.loop !45

_ZNK6icu_7712UnifiedCache13removeSoftRefEPKNS_12SharedObjectE.exit: ; preds = %_ZNK6icu_7712UnifiedCache12_isEvictableEPK12UHashElement.exit.thread, %_ZNK6icu_7712UnifiedCache12_nextElementEv.exit, %_ZNK6icu_7712UnifiedCache12_isEvictableEPK12UHashElement.exit.thread.us, %_ZNK6icu_7712UnifiedCache12_nextElementEv.exit.us, %2
  %.0.lcssa = phi i8 [ 0, %2 ], [ %.032.us, %_ZNK6icu_7712UnifiedCache12_nextElementEv.exit.us ], [ %.2.ph.us, %_ZNK6icu_7712UnifiedCache12_isEvictableEPK12UHashElement.exit.thread.us ], [ %.032, %_ZNK6icu_7712UnifiedCache12_nextElementEv.exit ], [ 1, %_ZNK6icu_7712UnifiedCache12_isEvictableEPK12UHashElement.exit.thread ]
  ret i8 %.0.lcssa
}